; Function Attrs: nounwind uwtable
define hidden ptr @luaX_newstring(ptr noundef readonly captures(none) %0, ptr noundef %1, i64 noundef %2) local_unnamed_addr #0 {
  %4 = alloca %struct.TValue, align 8
  %5 = getelementptr inbounds nuw i8, ptr %0, i64 56
  %6 = load ptr, ptr %5, align 8, !tbaa !14
  %7 = tail call ptr @luaS_newlstr(ptr noundef %6, ptr noundef %1, i64 noundef %2) #6
  %8 = load ptr, ptr %5, align 8, !tbaa !14
  call void @llvm.lifetime.start.p0(i64 16, ptr nonnull %4) #6
  %9 = getelementptr inbounds nuw i8, ptr %0, i64 80
  %10 = load ptr, ptr %9, align 8, !tbaa !33
  %11 = call zeroext i8 @luaH_getstr(ptr noundef %10, ptr noundef %7, ptr noundef nonnull %4) #6
  %12 = and i8 %11, 15
  %13 = icmp eq i8 %12, 0
  br i1 %13, label %16, label %14

14:                                               ; preds = %3
  %15 = load ptr, ptr %4, align 8, !tbaa !13
  br label %anchorstr.exit

16:                                               ; preds = %3
  %17 = getelementptr inbounds nuw i8, ptr %8, i64 16
  %18 = load ptr, ptr %17, align 8, !tbaa !13
  %19 = getelementptr inbounds nuw i8, ptr %18, i64 16
  store ptr %19, ptr %17, align 8, !tbaa !13
  store ptr %7, ptr %18, align 8, !tbaa !13
  %20 = getelementptr inbounds nuw i8, ptr %7, i64 8
  %21 = load i8, ptr %20, align 8, !tbaa !34
  %22 = or i8 %21, 64
  %23 = getelementptr inbounds nuw i8, ptr %18, i64 8
  store i8 %22, ptr %23, align 8, !tbaa !35
  %24 = load ptr, ptr %9, align 8, !tbaa !33
  call void @luaH_set(ptr noundef %8, ptr noundef %24, ptr noundef nonnull %18, ptr noundef nonnull %18) #6
  %25 = getelementptr inbounds nuw i8, ptr %8, i64 24
  %26 = load ptr, ptr %25, align 8, !tbaa !37
  %27 = getelementptr inbounds nuw i8, ptr %26, i64 24
  %28 = load i64, ptr %27, align 8, !tbaa !46
  %29 = icmp slt i64 %28, 1
  br i1 %29, label %30, label %31

30:                                               ; preds = %16
  call void @luaC_step(ptr noundef nonnull %8) #6
  br label %31

31:                                               ; preds = %30, %16
  %32 = load ptr, ptr %17, align 8, !tbaa !13
  %33 = getelementptr inbounds i8, ptr %32, i64 -16
  store ptr %33, ptr %17, align 8, !tbaa !13
  br label %anchorstr.exit

anchorstr.exit:                                   ; preds = %14, %31
  %.0.i = phi ptr [ %7, %31 ], [ %15, %14 ]
  call void @llvm.lifetime.end.p0(i64 16, ptr nonnull %4) #6
  ret ptr %.0.i
}